(dp1
S'test'
p2
(lp3
V5133
p4
aV6002
p5
aV6314
p6
aV6298
p7
aV5193
p8
aV5434
p9
aV5312
p10
aV6022
p11
aV5669
p12
aV6082
p13
aV5711
p14
aV5780
p15
aV6422
p16
aV5840
p17
aV5760
p18
aV5532
p19
aV5009
p20
aV5430
p21
aV6217
p22
aV6155
p23
aV6364
p24
aV6151
p25
aV5850
p26
aV6032
p27
aV6023
p28
aV5945
p29
aV5396
p30
aV6407
p31
aV6084
p32
aV5513
p33
aV5001
p34
aV5283
p35
aV5153
p36
aV5127
p37
aV5046
p38
aV5355
p39
aV5469
p40
aV5679
p41
aV6081
p42
aV6083
p43
aV6118
p44
aV5813
p45
aV5677
p46
aV5209
p47
aV5091
p48
aV6338
p49
aV5465
p50
aV5171
p51
aV5801
p52
aV6329
p53
aV5970
p54
aV6255
p55
aV5870
p56
aV5531
p57
aV5523
p58
aV5580
p59
aV6096
p60
aV6413
p61
aV5413
p62
aV5056
p63
aV5781
p64
aV6038
p65
aV5187
p66
aV5059
p67
aV6164
p68
aV5018
p69
aV6039
p70
aV6303
p71
aV6144
p72
aV6088
p73
aV5972
p74
aV5733
p75
aV5210
p76
aV6340
p77
aV5861
p78
aV6414
p79
aV5550
p80
aV5992
p81
aV5842
p82
aV5035
p83
aV5694
p84
aV5183
p85
aV5699
p86
aV6080
p87
aV5621
p88
aV5810
p89
aV5770
p90
aV5636
p91
aV5212
p92
aV5014
p93
aV5975
p94
aV6145
p95
aV6202
p96
aV5198
p97
aV5168
p98
aV6277
p99
aV6103
p100
aV5697
p101
aV6332
p102
aV5189
p103
aV5718
p104
aV6384
p105
aV5194
p106
aV5583
p107
aV5079
p108
aV5776
p109
aV5593
p110
aV5634
p111
aV5871
p112
aV5566
p113
aV5280
p114
aV6107
p115
aV6432
p116
aV5388
p117
aV5569
p118
aV5119
p119
aV6257
p120
aV5087
p121
aV5351
p122
aV5837
p123
aV5663
p124
aV6262
p125
aV5539
p126
aV6291
p127
aV5335
p128
aV5180
p129
aV5633
p130
aV5579
p131
aV5858
p132
aV6443
p133
aV5764
p134
aV5713
p135
aV6147
p136
aV5015
p137
aV5384
p138
aV5326
p139
aV5352
p140
aV6117
p141
aV5357
p142
aV6347
p143
aV5511
p144
aV5016
p145
aV6010
p146
aV5002
p147
aV5132
p148
aV5533
p149
aV6153
p150
aV5220
p151
aV5078
p152
aV5030
p153
aV6349
p154
aV6400
p155
aV5174
p156
aV5334
p157
aV6335
p158
aV5476
p159
aV6365
p160
aV6410
p161
aV5551
p162
aV5768
p163
aV5717
p164
aV5785
p165
aV5076
p166
aV5330
p167
aV5126
p168
aV6098
p169
aV5386
p170
aV6058
p171
aV5086
p172
aV6330
p173
aV5570
p174
aV6109
p175
aV5477
p176
aV5620
p177
aV5389
p178
aV5917
p179
aV6146
p180
aV5725
p181
aV5038
p182
aV5555
p183
aV5057
p184
aV5521
p185
aV5516
p186
aV5862
p187
aV6162
p188
aV5775
p189
aV5771
p190
aV5766
p191
aV5299
p192
aV6287
p193
aV6248
p194
aV5846
p195
aV6135
p196
aV6228
p197
aV6356
p198
aV5571
p199
aV5537
p200
aV5190
p201
aV6207
p202
aV5606
p203
aV5567
p204
aV5411
p205
aV5965
p206
aV5926
p207
aV6424
p208
aV5686
p209
aV5039
p210
aV5710
p211
aV5296
p212
aV5727
p213
aV6247
p214
aV6180
p215
aV6127
p216
aV5843
p217
aV5967
p218
aV6285
p219
aV6152
p220
aV6369
p221
aV5927
p222
aV6388
p223
aV5772
p224
aV5786
p225
aV6396
p226
aV5517
p227
aV6104
p228
aV6124
p229
aV6399
p230
aV5031
p231
aV6256
p232
aV6353
p233
aV5645
p234
aV5033
p235
aV5211
p236
aV5515
p237
aV5617
p238
aV5690
p239
aV5524
p240
aV5538
p241
aV5763
p242
aV5271
p243
aV5298
p244
aV5782
p245
aV5814
p246
aV6119
p247
aV5591
p248
aV6048
p249
aV5959
p250
aV6254
p251
aV5134
p252
aV6130
p253
aV6304
p254
aV5708
p255
aV5118
p256
aV5839
p257
aV5562
p258
aV6279
p259
aV6091
p260
aV5062
p261
aV6206
p262
aV5359
p263
aV5994
p264
aV6249
p265
aV5202
p266
aV5196
p267
aV5549
p268
aV5397
p269
aV5559
p270
aV5803
p271
aV5463
p272
aV6089
p273
aV6102
p274
aV5358
p275
aV5557
p276
aV5316
p277
aV5769
p278
aV5470
p279
aV5995
p280
aV6079
p281
aV5395
p282
aV6170
p283
aV5800
p284
aV5432
p285
aV6165
p286
aV5637
p287
aV6108
p288
aV6171
p289
aV6175
p290
aV5037
p291
aV5568
p292
aV6278
p293
aV6401
p294
aV6205
p295
aV5446
p296
aV5508
p297
aV5976
p298
aV5851
p299
aV6148
p300
aV5184
p301
aV6411
p302
aV6409
p303
aV5519
p304
aV6090
p305
aV6446
p306
aV6021
p307
aV5869
p308
aV6294
p309
aV6423
p310
aV6354
p311
aV5777
p312
aV6211
p313
aV6193
p314
aV5907
p315
aV5656
p316
aV6204
p317
aV5328
p318
aV6305
p319
aV5061
p320
aV6078
p321
aV6302
p322
aV6004
p323
aV6129
p324
aV6408
p325
aV6128
p326
aV5761
p327
aV6433
p328
aV6156
p329
aV6126
p330
aV6093
p331
aV6136
p332
aV5155
p333
aV5362
p334
aV5520
p335
aV5195
p336
aV6220
p337
aV6355
p338
aV6034
p339
aV5471
p340
aV5250
p341
aV5784
p342
aV6258
p343
aV6131
p344
aV6261
p345
aV6337
p346
aV5063
p347
aV5186
p348
aV5823
p349
aV5207
p350
aV5650
p351
aV5188
p352
aV5822
p353
aV5041
p354
aV6260
p355
aV5208
p356
aV5734
p357
aV6412
p358
aV6297
p359
aV6441
p360
aV5612
p361
aV5778
p362
aV5838
p363
aV5835
p364
aV6216
p365
aV5435
p366
aV5961
p367
aV5518
p368
aV5509
p369
aV5689
p370
aV6442
p371
aV6049
p372
aV5021
p373
aV6449
p374
aV5688
p375
aV5329
p376
aV6052
p377
aV5857
p378
aV5934
p379
aV5592
p380
aV5767
p381
aV5638
p382
aV5431
p383
aV5327
p384
aV5526
p385
aV6053
p386
aV5973
p387
aV5706
p388
aV5363
p389
aV5445
p390
aV5933
p391
aV5036
p392
aV6250
p393
aV5284
p394
aV5137
p395
aV6275
p396
aV6295
p397
aV5671
p398
aV6391
p399
aV6444
p400
aV5332
p401
aV6234
p402
aV5556
p403
aV6210
p404
aV5433
p405
aV6208
p406
aV5657
p407
aV5833
p408
aV5028
p409
aV5759
p410
aV5560
p411
aV5385
p412
aV5090
p413
aV6395
p414
aV5297
p415
aV5726
p416
aV6286
p417
aV5361
p418
aV5285
p419
aV6331
p420
aV5301
p421
aV5960
p422
aV5029
p423
aV6308
p424
aV6336
p425
aV5946
p426
aV6288
p427
aV6149
p428
aV5201
p429
aV5928
p430
aV5664
p431
aV5279
p432
aV5693
p433
aV5302
p434
aV5154
p435
aV5117
p436
aV6386
p437
aV6150
p438
aV6265
p439
aV5783
p440
aV5773
p441
aV6166
p442
aV6398
p443
aV6209
p444
aV6167
p445
aV5282
p446
aV5522
p447
aV6447
p448
aV5977
p449
aV5473
p450
aV5672
p451
aV6307
p452
aV6339
p453
aV6092
p454
aV5129
p455
aV5821
p456
aV5670
p457
aV5651
p458
aV6235
p459
aV5658
p460
aV5475
p461
aV5364
p462
aV6306
p463
aV5441
p464
aV5317
p465
aV5448
p466
aV5191
p467
aV5510
p468
aV5273
p469
aV5558
p470
aV6290
p471
aV6075
p472
aV6181
p473
aV5845
p474
aV5860
p475
aV5728
p476
aV5185
p477
aV5182
p478
aV5356
p479
aV6100
p480
aV5932
p481
aV6003
p482
aV5676
p483
aV5802
p484
aV5762
p485
aV6368
p486
aV6101
p487
aV5993
p488
aV6445
p489
aV6229
p490
aV5712
p491
aV5464
p492
aV5199
p493
aV6212
p494
aV6233
p495
aV6385
p496
aV5744
p497
aV5687
p498
aV6421
p499
aV5947
p500
aV5962
p501
aV5088
p502
aV5315
p503
aV5594
p504
aV6094
p505
aV6203
p506
aV5387
p507
aV5681
p508
aV6389
p509
aV6431
p510
aV6194
p511
aV5698
p512
aV5060
p513
aV6430
p514
aV6280
p515
aV6263
p516
aV5765
p517
aV5561
p518
aV5971
p519
aV5032
p520
aV5779
p521
aV5603
p522
aV6095
p523
aV5724
p524
aV5604
p525
aV5192
p526
aV5906
p527
aV6057
p528
aV5042
p529
aV5197
p530
aV5311
p531
aV6011
p532
aV5181
p533
aV5774
p534
aV5221
p535
aV5525
p536
aV5732
p537
aV6012
p538
aV5804
p539
aV5613
p540
aV6174
p541
aV5300
p542
aV5462
p543
aV5167
p544
aV5414
p545
aV6157
p546
aV5680
p547
aV6390
p548
aV6123
p549
aV6077
p550
aV5991
p551
aV6195
p552
aV6001
p553
aV5619
p554
aV5707
p555
aV6201
p556
aV5472
p557
aV5077
p558
aV6219
p559
aV6218
p560
aV5089
p561
aV5084
p562
aV5325
p563
aV5047
p564
aV5281
p565
aV5605
p566
aV6387
p567
aV5668
p568
aV5333
p569
aV5731
p570
aV5564
p571
aV5644
p572
aV5709
p573
aV6179
p574
aV5310
p575
aV5678
p576
aV6397
p577
aV6448
p578
aV5442
p579
aV5264
p580
aV5859
p581
aV5331
p582
aV6276
p583
aV6394
p584
aV6192
p585
aV5974
p586
aV5173
p587
aV6176
p588
aV5125
p589
aV6154
p590
aV5172
p591
aV6230
p592
aV6125
p593
aV5175
p594
aV5918
p595
aV6299
p596
aV5512
p597
aV5743
p598
aV6315
p599
aV6184
p600
aV5200
p601
aV6106
p602
aV6259
p603
aV5390
p604
aV5565
p605
aV5169
p606
aV5443
p607
aV5222
p608
aV5017
p609
aV5176
p610
aV5043
p611
aV6264
p612
aV6163
p613
aV6033
p614
aV5834
p615
aV6292
p616
aV5673
p617
aV6227
p618
aV5447
p619
aV5787
p620
aV5444
p621
aV5607
p622
aV5360
p623
aV6158
p624
aV5412
p625
aV5581
p626
aV5582
p627
aV5635
p628
aV5466
p629
aV6226
p630
aV5844
p631
aV5272
p632
aV5034
p633
aV5811
p634
aV6293
p635
aV5836
p636
aV5852
p637
aV6348
p638
aV5908
p639
aV6076
p640
aV5040
p641
aV6196
p642
aV5919
p643
aV6099
p644
aV5128
p645
aV6183
p646
aV5474
p647
aV5085
p648
aV6289
p649
aV5563
p650
aV5841
p651
aV6182
p652
aV5812
p653
aV5131
p654
aV5935
p655
aV5966
p656
aV5618
p657
asS'train'
p658
(lp659
V5449
p660
aV6140
p661
aV5902
p662
aV5543
p663
aV6392
p664
aV5425
p665
aV5121
p666
aV5506
p667
aV5696
p668
aV6239
p669
aV6143
p670
aV5485
p671
aV5990
p672
aV5322
p673
aV6138
p674
aV5986
p675
aV5756
p676
aV5323
p677
aV5158
p678
aV5921
p679
aV5855
p680
aV5478
p681
aV5898
p682
aV5415
p683
aV6054
p684
aV5161
p685
aV5318
p686
aV5218
p687
aV5460
p688
aV6056
p689
aV6313
p690
aV5595
p691
aV5256
p692
aV5353
p693
aV5044
p694
aV5177
p695
aV6029
p696
aV5980
p697
aV5493
p698
aV5528
p699
aV5904
p700
aV5895
p701
aV5881
p702
aV5275
p703
aV5829
p704
aV5426
p705
aV6334
p706
aV5548
p707
aV5988
p708
aV5714
p709
aV5254
p710
aV5309
p711
aV5253
p712
aV5255
p713
aV5983
p714
aV5752
p715
aV5005
p716
aV6240
p717
aV5546
p718
aV5695
p719
aV5684
p720
aV5751
p721
aV6274
p722
aV5882
p723
aV5730
p724
aV5495
p725
aV5489
p726
aV5749
p727
aV6244
p728
aV5599
p729
aV5503
p730
aV5319
p731
aV5418
p732
aV5454
p733
aV5937
p734
aV5416
p735
aV5989
p736
aV5505
p737
aV6352
p738
aV6237
p739
aV6139
p740
aV5901
p741
aV5421
p742
aV5498
p743
aV5602
p744
aV5083
p745
aV5944
p746
aV5456
p747
aV6122
p748
aV6333
p749
aV5417
p750
aV5981
p751
aV5165
p752
aV6417
p753
aV5758
p754
aV5527
p755
aV5082
p756
aV5805
p757
aV5308
p758
aV5828
p759
aV5120
p760
aV5214
p761
aV5530
p762
aV6026
p763
aV5452
p764
aV5008
p765
aV5251
p766
aV6047
p767
aV6238
p768
aV6008
p769
aV5925
p770
aV5873
p771
aV6366
p772
aV5156
p773
aV5875
p774
aV6311
p775
aV6224
p776
aV6169
p777
aV5922
p778
aV5877
p779
aV5615
p780
aV5896
p781
aV5715
p782
aV5890
p783
aV6141
p784
aV5179
p785
aV5215
p786
aV5685
p787
aV6246
p788
aV5641
p789
aV5058
p790
aV5807
p791
aV5122
p792
aV5423
p793
aV5716
p794
aV5652
p795
aV5262
p796
aV5978
p797
aV5429
p798
aV5542
p799
aV5598
p800
aV5984
p801
aV5354
p802
aV5261
p803
aV6044
p804
aV5003
p805
aV5888
p806
aV5422
p807
aV5124
p808
aV5219
p809
aV6009
p810
aV6087
p811
aV5892
p812
aV6168
p813
aV5616
p814
aV5754
p815
aV5547
p816
aV5393
p817
aV5889
p818
aV5750
p819
aV5963
p820
aV5500
p821
aV5004
p822
aV5303
p823
aV6269
p824
aV6243
p825
aV5885
p826
aV5019
p827
aV5757
p828
aV6267
p829
aV5809
p830
aV5321
p831
aV5529
p832
aV5643
p833
aV5748
p834
aV5501
p835
aV6137
p836
aV5213
p837
aV5259
p838
aV5596
p839
aV5745
p840
aV5653
p841
aV6418
p842
aV5507
p843
aV5136
p844
aV5453
p845
aV6367
p846
aV5544
p847
aV6046
p848
aV6271
p849
aV5252
p850
aV5488
p851
aV5480
p852
aV5080
p853
aV5504
p854
aV5274
p855
aV5578
p856
aV5920
p857
aV5654
p858
aV5924
p859
aV5260
p860
aV5394
p861
aV6041
p862
aV5263
p863
aV6223
p864
aV5642
p865
aV6121
p866
aV5497
p867
aV5939
p868
aV5491
p869
aV5825
p870
aV5753
p871
aV5320
p872
aV5487
p873
aV6042
p874
aV6270
p875
aV5940
p876
aV5157
p877
aV5479
p878
aV5496
p879
aV5639
p880
aV5392
p881
aV6177
p882
aV5614
p883
aV5451
p884
aV6312
p885
aV6199
p886
aV5667
p887
aV5666
p888
aV6198
p889
aV5006
p890
aV5427
p891
aV5887
p892
aV5755
p893
aV6200
p894
aV5461
p895
aV6120
p896
aV5982
p897
aV6416
p898
aV5277
p899
aV5884
p900
aV6142
p901
aV6268
p902
aV5880
p903
aV6266
p904
aV5166
p905
aV5258
p906
aV5420
p907
aV5490
p908
aV5135
p909
aV5655
p910
aV5391
p911
aV5682
p912
aV5853
p913
aV5905
p914
aV6045
p915
aV5576
p916
aV5827
p917
aV5492
p918
aV5943
p919
aV5574
p920
aV5307
p921
aV5428
p922
aV5874
p923
aV6006
p924
aV5458
p925
aV5883
p926
aV6030
p927
aV5808
p928
aV5964
p929
aV5305
p930
aV5159
p931
aV5540
p932
aV6178
p933
aV6024
p934
aV5484
p935
aV5832
p936
aV6031
p937
aV5459
p938
aV6028
p939
aV5729
p940
aV5601
p941
aV6415
p942
aV5483
p943
aV5324
p944
aV5894
p945
aV5830
p946
aV6025
p947
aV5854
p948
aV5164
p949
aV6350
p950
aV5903
p951
aV6296
p952
aV5600
p953
aV5486
p954
aV5007
p955
aV6055
p956
aV5747
p957
aV5872
p958
aV5856
p959
aV5482
p960
aV5424
p961
aV5987
p962
aV6222
p963
aV5597
p964
aV5876
p965
aV5824
p966
aV5178
p967
aV6085
p968
aV5979
p969
aV6197
p970
aV5985
p971
aV5572
p972
aV5899
p973
aV5020
p974
aV6241
p975
aV5276
p976
aV5938
p977
aV5806
p978
aV6272
p979
aV6043
p980
aV5502
p981
aV5893
p982
aV6105
p983
aV5160
p984
aV5886
p985
aV6007
p986
aV5923
p987
aV5942
p988
aV5665
p989
aV6225
p990
aV5577
p991
aV5257
p992
aV6273
p993
aV5481
p994
aV5162
p995
aV5217
p996
aV5457
p997
aV6245
p998
aV5879
p999
aV6005
p1000
aV6309
p1001
aV5575
p1002
aV5494
p1003
aV5900
p1004
aV5216
p1005
aV5304
p1006
aV5499
p1007
aV5746
p1008
aV5545
p1009
aV5045
p1010
aV6236
p1011
aV5278
p1012
aV6242
p1013
aV5123
p1014
aV5450
p1015
aV5306
p1016
aV5419
p1017
aV5897
p1018
aV5831
p1019
aV6086
p1020
aV5891
p1021
aV5455
p1022
aV6351
p1023
aV5878
p1024
aV5826
p1025
aV5081
p1026
aV6420
p1027
aV6393
p1028
aV6040
p1029
aV5573
p1030
aV6310
p1031
aV5640
p1032
aV5936
p1033
aV5541
p1034
aV6221
p1035
aV5163
p1036
aV6027
p1037
aV5941
p1038
aV5683
p1039
aV6419
p1040
asS'val'
p1041
(lp1042
V6191
p1043
aV5109
p1044
aV5438
p1045
aV5145
p1046
aV5915
p1047
aV5093
p1048
aV5025
p1049
aV5740
p1050
aV5375
p1051
aV5590
p1052
aV6185
p1053
aV5913
p1054
aV5659
p1055
aV5073
p1056
aV5241
p1057
aV6112
p1058
aV5799
p1059
aV5738
p1060
aV5097
p1061
aV6016
p1062
aV6301
p1063
aV6383
p1064
aV5148
p1065
aV5265
p1066
aV5552
p1067
aV5022
p1068
aV5071
p1069
aV5112
p1070
aV6190
p1071
aV6014
p1072
aV5105
p1073
aV5373
p1074
aV5144
p1075
aV5735
p1076
aV5146
p1077
aV6132
p1078
aV5819
p1079
aV5048
p1080
aV5092
p1081
aV5143
p1082
aV6322
p1083
aV5867
p1084
aV6068
p1085
aV6215
p1086
aV5969
p1087
aV6019
p1088
aV5646
p1089
aV5950
p1090
aV6111
p1091
aV5227
p1092
aV6326
p1093
aV5627
p1094
aV5788
p1095
aV6073
p1096
aV5340
p1097
aV5223
p1098
aV5691
p1099
aV5348
p1100
aV5094
p1101
aV5269
p1102
aV6380
p1103
aV5142
p1104
aV5674
p1105
aV6374
p1106
aV5791
p1107
aV6064
p1108
aV6436
p1109
aV5401
p1110
aV6406
p1111
aV6342
p1112
aV6377
p1113
aV5230
p1114
aV5789
p1115
aV5049
p1116
aV5268
p1117
aV6382
p1118
aV5587
p1119
aV5402
p1120
aV6370
p1121
aV6173
p1122
aV5790
p1123
aV6017
p1124
aV5929
p1125
aV6000
p1126
aV5238
p1127
aV6375
p1128
aV5910
p1129
aV5152
p1130
aV5405
p1131
aV6439
p1132
aV5243
p1133
aV5467
p1134
aV6188
p1135
aV6318
p1136
aV5267
p1137
aV5954
p1138
aV6317
p1139
aV5916
p1140
aV5054
p1141
aV6361
p1142
aV5535
p1143
aV6097
p1144
aV5649
p1145
aV5409
p1146
aV6013
p1147
aV5719
p1148
aV5337
p1149
aV5368
p1150
aV6434
p1151
aV5793
p1152
aV5023
p1153
aV5245
p1154
aV6359
p1155
aV5228
p1156
aV5723
p1157
aV5244
p1158
aV5626
p1159
aV5948
p1160
aV5068
p1161
aV5406
p1162
aV6405
p1163
aV5625
p1164
aV6063
p1165
aV6113
p1166
aV5050
p1167
aV5242
p1168
aV5721
p1169
aV5011
p1170
aV5012
p1171
aV5956
p1172
aV6067
p1173
aV5313
p1174
aV6110
p1175
aV5103
p1176
aV5369
p1177
aV5101
p1178
aV6074
p1179
aV5288
p1180
aV6059
p1181
aV5953
p1182
aV5113
p1183
aV5343
p1184
aV6345
p1185
aV5372
p1186
aV5622
p1187
aV5140
p1188
aV5675
p1189
aV5863
p1190
aV5742
p1191
aV6160
p1192
aV5399
p1193
aV6284
p1194
aV5609
p1195
aV6282
p1196
aV5955
p1197
aV5366
p1198
aV5630
p1199
aV5403
p1200
aV6037
p1201
aV5436
p1202
aV5632
p1203
aV5794
p1204
aV5151
p1205
aV5586
p1206
aV5816
p1207
aV6189
p1208
aV5383
p1209
aV6231
p1210
aV5345
p1211
aV6323
p1212
aV5798
p1213
aV6379
p1214
aV5741
p1215
aV6437
p1216
aV5235
p1217
aV5662
p1218
aV5404
p1219
aV5150
p1220
aV6372
p1221
aV5608
p1222
aV6363
p1223
aV5205
p1224
aV5293
p1225
aV6325
p1226
aV5949
p1227
aV6186
p1228
aV5553
p1229
aV5817
p1230
aV5958
p1231
aV5931
p1232
aV5818
p1233
aV5365
p1234
aV5398
p1235
aV5347
p1236
aV6159
p1237
aV5952
p1238
aV5349
p1239
aV6251
p1240
aV5629
p1241
aV5248
p1242
aV5013
p1243
aV5224
p1244
aV5294
p1245
aV5705
p1246
aV5997
p1247
aV5070
p1248
aV6324
p1249
aV5065
p1250
aV5110
p1251
aV5229
p1252
aV5270
p1253
aV5865
p1254
aV5585
p1255
aV5067
p1256
aV6378
p1257
aV5376
p1258
aV5382
p1259
aV5064
p1260
aV5226
p1261
aV5295
p1262
aV5346
p1263
aV5623
p1264
aV6358
p1265
aV5239
p1266
aV6050
p1267
aV6069
p1268
aV5702
p1269
aV6134
p1270
aV5380
p1271
aV5055
p1272
aV5203
p1273
aV5911
p1274
aV5437
p1275
aV5344
p1276
aV5792
p1277
aV5815
p1278
aV6426
p1279
aV6065
p1280
aV5951
p1281
aV5610
p1282
aV5052
p1283
aV6403
p1284
aV5864
p1285
aV6133
p1286
aV5410
p1287
aV5631
p1288
aV5660
p1289
aV5350
p1290
aV5240
p1291
aV5914
p1292
aV6428
p1293
aV5400
p1294
aV5378
p1295
aV5795
p1296
aV5930
p1297
aV6319
p1298
aV5292
p1299
aV5624
p1300
aV5231
p1301
aV5336
p1302
aV5849
p1303
aV5024
p1304
aV5108
p1305
aV5589
p1306
aV5072
p1307
aV5130
p1308
aV5588
p1309
aV6320
p1310
aV5847
p1311
aV5138
p1312
aV5866
p1313
aV6066
p1314
aV5648
p1315
aV6425
p1316
aV6062
p1317
aV6402
p1318
aV6357
p1319
aV5468
p1320
aV6213
p1321
aV5439
p1322
aV6404
p1323
aV6060
p1324
aV5692
p1325
aV5098
p1326
aV6344
p1327
aV6187
p1328
aV5139
p1329
aV5074
p1330
aV6300
p1331
aV5225
p1332
aV5722
p1333
aV5720
p1334
aV6061
p1335
aV5374
p1336
aV5704
p1337
aV6036
p1338
aV5554
p1339
aV5536
p1340
aV6316
p1341
aV5096
p1342
aV5440
p1343
aV6232
p1344
aV5534
p1345
aV5287
p1346
aV5367
p1347
aV6360
p1348
aV6427
p1349
aV6321
p1350
aV5141
p1351
aV6114
p1352
aV5377
p1353
aV5232
p1354
aV6440
p1355
aV5820
p1356
aV6281
p1357
aV6376
p1358
aV6328
p1359
aV5095
p1360
aV5379
p1361
aV5116
p1362
aV6435
p1363
aV6018
p1364
aV5909
p1365
aV6161
p1366
aV5968
p1367
aV5868
p1368
aV5371
p1369
aV5010
p1370
aV6115
p1371
aV6253
p1372
aV5289
p1373
aV6371
p1374
aV5338
p1375
aV5111
p1376
aV5341
p1377
aV5206
p1378
aV6071
p1379
aV5102
p1380
aV5998
p1381
aV6381
p1382
aV6015
p1383
aV5736
p1384
aV6116
p1385
aV6072
p1386
aV6429
p1387
aV6172
p1388
aV5291
p1389
aV5234
p1390
aV6343
p1391
aV5381
p1392
aV6214
p1393
aV5099
p1394
aV5342
p1395
aV5703
p1396
aV5628
p1397
aV5957
p1398
aV5339
p1399
aV5912
p1400
aV5701
p1401
aV5247
p1402
aV5266
p1403
aV6327
p1404
aV6438
p1405
aV5584
p1406
aV5075
p1407
aV5290
p1408
aV5027
p1409
aV5797
p1410
aV6362
p1411
aV5237
p1412
aV5233
p1413
aV6035
p1414
aV6070
p1415
aV5286
p1416
aV6341
p1417
aV5739
p1418
aV6373
p1419
aV6020
p1420
aV5204
p1421
aV5114
p1422
aV5661
p1423
aV6283
p1424
aV5737
p1425
aV5514
p1426
aV5407
p1427
aV5053
p1428
aV5796
p1429
aV5647
p1430
aV5100
p1431
aV5700
p1432
aV6051
p1433
aV5249
p1434
aV5314
p1435
aV5147
p1436
aV5999
p1437
aV5051
p1438
aV5104
p1439
aV5069
p1440
aV5107
p1441
aV5848
p1442
aV5170
p1443
aV5026
p1444
aV5066
p1445
aV5236
p1446
aV5370
p1447
aV5106
p1448
aV6252
p1449
aV5115
p1450
aV5149
p1451
aV5246
p1452
aV5408
p1453
aV5996
p1454
aV5611
p1455
aV6346
p1456
as.